; Function Attrs: nounwind uwtable
define void @b2World_RebuildStaticTree(i32 %0) local_unnamed_addr #0 {
  %2 = and i32 %0, 65535
  %3 = zext nneg i32 %2 to i64
  %4 = getelementptr %struct.b2World, ptr @b2_worlds, i64 %3
  %5 = getelementptr i8, ptr %4, i64 -9
  %6 = load i8, ptr %5, align 1, !tbaa !35, !range !77, !noundef !78
  %7 = trunc nuw i8 %6 to i1
  br i1 %7, label %11, label %8

8:                                                ; preds = %1
  %9 = getelementptr i8, ptr %4, i64 -1752
  %10 = tail call i32 @b2DynamicTree_Rebuild(ptr noundef nonnull %9, i1 noundef zeroext true) #22
  br label %11

11:                                               ; preds = %1, %8
  ret void
}